target datalayout = "e-m:e-p270:32:32-p271:32:32-p272:64:64-i64:64-i128:128-f80:128-n8:16:32:64-S128"
target triple = "x86_64-pc-linux-gnu"

%"class.arrow::Status" = type { ptr }
%"class.arrow::(anonymous namespace)::ScalarEqualsVisitor" = type <{ ptr, %"class.arrow::EqualOptions", i8, i8, [6 x i8] }>
%"class.arrow::EqualOptions" = type { double, i8, i8, ptr }
%"class.std::enable_shared_from_this" = type { %"class.std::weak_ptr" }
%"class.std::weak_ptr" = type { %"class.std::__weak_ptr" }
%"class.std::__weak_ptr" = type { ptr, %"class.std::__weak_count" }
%"class.std::__weak_count" = type { ptr }
%"class.std::shared_ptr.7" = type { %"class.std::__shared_ptr.8" }
%"class.std::__shared_ptr.8" = type { ptr, %"class.std::__shared_count" }
%"class.std::__shared_count" = type { ptr }
%"struct.arrow::Scalar.base" = type <{ ptr, %"class.std::enable_shared_from_this", %"class.std::shared_ptr.7", i8 }>
%"struct.arrow::StructScalar" = type { %"struct.arrow::Scalar.base", %"class.std::vector.327" }
%"class.std::vector.327" = type { %"struct.std::_Vector_base.328" }
%"struct.std::_Vector_base.328" = type { %"struct.std::_Vector_base<std::shared_ptr<arrow::Scalar>, std::allocator<std::shared_ptr<arrow::Scalar>>>::_Vector_impl" }
%"struct.std::_Vector_base<std::shared_ptr<arrow::Scalar>, std::allocator<std::shared_ptr<arrow::Scalar>>>::_Vector_impl" = type { %"struct.std::_Vector_base<std::shared_ptr<arrow::Scalar>, std::allocator<std::shared_ptr<arrow::Scalar>>>::_Vector_impl_data" }
%"struct.std::_Vector_base<std::shared_ptr<arrow::Scalar>, std::allocator<std::shared_ptr<arrow::Scalar>>>::_Vector_impl_data" = type { ptr, ptr, ptr }
%"class.std::shared_ptr.334" = type { %"class.std::__shared_ptr.335" }
%"class.std::__shared_ptr.335" = type { ptr, %"class.std::__shared_count" }

; Function Attrs: mustprogress nounwind uwtable
define linkonce_odr noundef ptr @_ZNKSt12__shared_ptrIN5arrow6ScalarELN9__gnu_cxx12_Lock_policyE2EE3getEv(ptr noundef nonnull align 8 dereferenceable(16) %0) #0 comdat align 2 {
  %2 = alloca ptr, align 8
  store ptr %0, ptr %2, align 8, !tbaa !1402
  %3 = load ptr, ptr %2, align 8
  %4 = getelementptr inbounds nuw %"class.std::__shared_ptr.335", ptr %3, i32 0, i32 0
  %5 = load ptr, ptr %4, align 8, !tbaa !1404
  ret ptr %5
}

; Function Attrs: mustprogress nounwind uwtable
define linkonce_odr void @_ZN5arrow6StatusC2Ev(ptr noundef nonnull align 8 dereferenceable(8) %0) unnamed_addr #0 comdat align 2 {
  %2 = alloca ptr, align 8
  store ptr %0, ptr %2, align 8, !tbaa !129
  %3 = load ptr, ptr %2, align 8
  %4 = getelementptr inbounds nuw %"class.arrow::Status", ptr %3, i32 0, i32 0
  store ptr null, ptr %4, align 8, !tbaa !131
  ret void
}

; Function Attrs: mustprogress nounwind uwtable
define linkonce_odr noundef ptr @_ZNKSt19__shared_ptr_accessIN5arrow6ScalarELN9__gnu_cxx12_Lock_policyE2ELb0ELb0EE6_M_getEv(ptr noundef nonnull align 1 dereferenceable(1) %0) #0 comdat align 2 {
  %2 = alloca ptr, align 8
  store ptr %0, ptr %2, align 8, !tbaa !1400
  %3 = load ptr, ptr %2, align 8
  %4 = call noundef ptr @_ZNKSt12__shared_ptrIN5arrow6ScalarELN9__gnu_cxx12_Lock_policyE2EE3getEv(ptr noundef nonnull align 8 dereferenceable(16) %3) #20
  ret ptr %4
}

; Function Attrs: mustprogress nounwind uwtable
define linkonce_odr void @_ZN5arrow6Status2OKEv(ptr dead_on_unwind noalias writable sret(%"class.arrow::Status") align 8 %0) #0 comdat align 2 {
  %2 = alloca ptr, align 8
  store ptr %0, ptr %2, align 8
  call void @_ZN5arrow6StatusC2Ev(ptr noundef nonnull align 8 dereferenceable(8) %0) #20
  ret void
}

; Function Attrs: mustprogress nounwind uwtable
define linkonce_odr noundef nonnull align 8 dereferenceable(41) ptr @_ZNKSt19__shared_ptr_accessIN5arrow6ScalarELN9__gnu_cxx12_Lock_policyE2ELb0ELb0EEdeEv(ptr noundef nonnull align 1 dereferenceable(1) %0) #0 comdat align 2 {
  %2 = alloca ptr, align 8
  store ptr %0, ptr %2, align 8, !tbaa !1400
  %3 = load ptr, ptr %2, align 8
  br label %4

4:                                                ; preds = %1
  br label %5

5:                                                ; preds = %4
  br label %6

6:                                                ; preds = %5
  %7 = call noundef ptr @_ZNKSt19__shared_ptr_accessIN5arrow6ScalarELN9__gnu_cxx12_Lock_policyE2ELb0ELb0EE6_M_getEv(ptr noundef nonnull align 1 dereferenceable(1) %3) #20
  ret ptr %7
}

; Function Attrs: mustprogress nounwind uwtable
define linkonce_odr noundef nonnull align 8 dereferenceable(16) ptr @_ZNKSt6vectorISt10shared_ptrIN5arrow6ScalarEESaIS3_EEixEm(ptr noundef nonnull align 8 dereferenceable(24) %0, i64 noundef %1) #0 comdat align 2 {
  %3 = alloca ptr, align 8
  %4 = alloca i64, align 8
  store ptr %0, ptr %3, align 8, !tbaa !1396
  store i64 %1, ptr %4, align 8, !tbaa !43
  %5 = load ptr, ptr %3, align 8
  %6 = getelementptr inbounds nuw %"struct.std::_Vector_base.328", ptr %5, i32 0, i32 0
  %7 = getelementptr inbounds nuw %"struct.std::_Vector_base<std::shared_ptr<arrow::Scalar>, std::allocator<std::shared_ptr<arrow::Scalar>>>::_Vector_impl_data", ptr %6, i32 0, i32 0
  %8 = load ptr, ptr %7, align 8, !tbaa !1399
  %9 = load i64, ptr %4, align 8, !tbaa !43
  %10 = getelementptr inbounds nuw %"class.std::shared_ptr.334", ptr %8, i64 %9
  ret ptr %10
}

; Function Attrs: mustprogress nounwind uwtable
define linkonce_odr noundef i64 @_ZNKSt6vectorISt10shared_ptrIN5arrow6ScalarEESaIS3_EE4sizeEv(ptr noundef nonnull align 8 dereferenceable(24) %0) #0 comdat align 2 {
  %2 = alloca ptr, align 8
  store ptr %0, ptr %2, align 8, !tbaa !1396
  %3 = load ptr, ptr %2, align 8
  %4 = getelementptr inbounds nuw %"struct.std::_Vector_base.328", ptr %3, i32 0, i32 0
  %5 = getelementptr inbounds nuw %"struct.std::_Vector_base<std::shared_ptr<arrow::Scalar>, std::allocator<std::shared_ptr<arrow::Scalar>>>::_Vector_impl_data", ptr %4, i32 0, i32 1
  %6 = load ptr, ptr %5, align 8, !tbaa !1398
  %7 = getelementptr inbounds nuw %"struct.std::_Vector_base.328", ptr %3, i32 0, i32 0
  %8 = getelementptr inbounds nuw %"struct.std::_Vector_base<std::shared_ptr<arrow::Scalar>, std::allocator<std::shared_ptr<arrow::Scalar>>>::_Vector_impl_data", ptr %7, i32 0, i32 0
  %9 = load ptr, ptr %8, align 8, !tbaa !1399
  %10 = ptrtoint ptr %6 to i64
  %11 = ptrtoint ptr %9 to i64
  %12 = sub i64 %10, %11
  %13 = sdiv exact i64 %12, 16
  ret i64 %13
}

; Function Attrs: inlinehint mustprogress nounwind uwtable
define linkonce_odr noundef nonnull align 8 dereferenceable(72) ptr @_ZN5arrow8internal12checked_castIRKNS_12StructScalarERKNS_6ScalarEEET_OT0_(ptr noundef nonnull align 8 dereferenceable(41) %0) #5 comdat {
  %2 = alloca ptr, align 8
  store ptr %0, ptr %2, align 8, !tbaa !61
  %3 = load ptr, ptr %2, align 8, !tbaa !61
  ret ptr %3
}

; Function Attrs: mustprogress uwtable
define internal void @_ZN5arrow12_GLOBAL__N_119ScalarEqualsVisitor5VisitERKNS_12StructScalarE(ptr dead_on_unwind noalias writable sret(%"class.arrow::Status") align 8 %0, ptr noundef nonnull align 8 dereferenceable(34) %1, ptr noundef nonnull align 8 dereferenceable(72) %2) #1 align 2 {
  %4 = alloca ptr, align 8
  %5 = alloca ptr, align 8
  %6 = alloca ptr, align 8
  %7 = alloca ptr, align 8
  %8 = alloca i8, align 1
  %9 = alloca i64, align 8
  store ptr %0, ptr %4, align 8
  store ptr %1, ptr %5, align 8, !tbaa !1191
  store ptr %2, ptr %6, align 8, !tbaa !1313
  %10 = load ptr, ptr %5, align 8
  call void @llvm.lifetime.start.p0(i64 8, ptr %7) #20
  %11 = getelementptr inbounds nuw %"class.arrow::(anonymous namespace)::ScalarEqualsVisitor", ptr %10, i32 0, i32 0
  %12 = load ptr, ptr %11, align 8, !tbaa !1201
  %13 = call noundef nonnull align 8 dereferenceable(72) ptr @_ZN5arrow8internal12checked_castIRKNS_12StructScalarERKNS_6ScalarEEET_OT0_(ptr noundef nonnull align 8 dereferenceable(41) %12)
  store ptr %13, ptr %7, align 8, !tbaa !1313
  %14 = load ptr, ptr %7, align 8, !tbaa !1313
  %15 = getelementptr inbounds nuw %"struct.arrow::StructScalar", ptr %14, i32 0, i32 1
  %16 = call noundef i64 @_ZNKSt6vectorISt10shared_ptrIN5arrow6ScalarEESaIS3_EE4sizeEv(ptr noundef nonnull align 8 dereferenceable(24) %15) #20
  %17 = load ptr, ptr %6, align 8, !tbaa !1313
  %18 = getelementptr inbounds nuw %"struct.arrow::StructScalar", ptr %17, i32 0, i32 1
  %19 = call noundef i64 @_ZNKSt6vectorISt10shared_ptrIN5arrow6ScalarEESaIS3_EE4sizeEv(ptr noundef nonnull align 8 dereferenceable(24) %18) #20
  %20 = icmp ne i64 %16, %19
  br i1 %20, label %21, label %23

21:                                               ; preds = %3
  %22 = getelementptr inbounds nuw %"class.arrow::(anonymous namespace)::ScalarEqualsVisitor", ptr %10, i32 0, i32 3
  store i8 0, ptr %22, align 1, !tbaa !1196
  br label %67

23:                                               ; preds = %3
  call void @llvm.lifetime.start.p0(i64 1, ptr %8) #20
  store i8 1, ptr %8, align 1, !tbaa !57
  call void @llvm.lifetime.start.p0(i64 8, ptr %9) #20
  store i64 0, ptr %9, align 8, !tbaa !43
  br label %24

24:                                               ; preds = %59, %23
  %25 = load i64, ptr %9, align 8, !tbaa !43
  %26 = load ptr, ptr %6, align 8, !tbaa !1313
  %27 = getelementptr inbounds nuw %"struct.arrow::StructScalar", ptr %26, i32 0, i32 1
  %28 = call noundef i64 @_ZNKSt6vectorISt10shared_ptrIN5arrow6ScalarEESaIS3_EE4sizeEv(ptr noundef nonnull align 8 dereferenceable(24) %27) #20
  %29 = icmp ult i64 %25, %28
  br i1 %29, label %30, label %33

30:                                               ; preds = %24
  %31 = load i8, ptr %8, align 1, !tbaa !57, !range !59, !noundef !60
  %32 = trunc i8 %31 to i1
  br label %33

33:                                               ; preds = %30, %24
  %34 = phi i1 [ false, %24 ], [ %32, %30 ]
  br i1 %34, label %36, label %35

35:                                               ; preds = %33
  call void @llvm.lifetime.end.p0(i64 8, ptr %9) #20
  br label %62

36:                                               ; preds = %33
  %37 = load ptr, ptr %6, align 8, !tbaa !1313
  %38 = getelementptr inbounds nuw %"struct.arrow::StructScalar", ptr %37, i32 0, i32 1
  %39 = load i64, ptr %9, align 8, !tbaa !43
  %40 = call noundef nonnull align 8 dereferenceable(16) ptr @_ZNKSt6vectorISt10shared_ptrIN5arrow6ScalarEESaIS3_EEixEm(ptr noundef nonnull align 8 dereferenceable(24) %38, i64 noundef %39) #20
  %41 = call noundef nonnull align 8 dereferenceable(41) ptr @_ZNKSt19__shared_ptr_accessIN5arrow6ScalarELN9__gnu_cxx12_Lock_policyE2ELb0ELb0EEdeEv(ptr noundef nonnull align 1 dereferenceable(1) %40) #20
  %42 = load ptr, ptr %7, align 8, !tbaa !1313
  %43 = getelementptr inbounds nuw %"struct.arrow::StructScalar", ptr %42, i32 0, i32 1
  %44 = load i64, ptr %9, align 8, !tbaa !43
  %45 = call noundef nonnull align 8 dereferenceable(16) ptr @_ZNKSt6vectorISt10shared_ptrIN5arrow6ScalarEESaIS3_EEixEm(ptr noundef nonnull align 8 dereferenceable(24) %43, i64 noundef %44) #20
  %46 = call noundef nonnull align 8 dereferenceable(41) ptr @_ZNKSt19__shared_ptr_accessIN5arrow6ScalarELN9__gnu_cxx12_Lock_policyE2ELb0ELb0EEdeEv(ptr noundef nonnull align 1 dereferenceable(1) %45) #20
  %47 = getelementptr inbounds nuw %"class.arrow::(anonymous namespace)::ScalarEqualsVisitor", ptr %10, i32 0, i32 1
  %48 = getelementptr inbounds nuw %"class.arrow::(anonymous namespace)::ScalarEqualsVisitor", ptr %10, i32 0, i32 2
  %49 = load i8, ptr %48, align 8, !tbaa !1194, !range !59, !noundef !60
  %50 = trunc i8 %49 to i1
  %51 = call noundef zeroext i1 @_ZN5arrow12_GLOBAL__N_112ScalarEqualsERKNS_6ScalarES3_RKNS_12EqualOptionsEb(ptr noundef nonnull align 8 dereferenceable(41) %41, ptr noundef nonnull align 8 dereferenceable(41) %46, ptr noundef nonnull align 8 dereferenceable(24) %47, i1 noundef zeroext %50)
  %52 = zext i1 %51 to i32
  %53 = load i8, ptr %8, align 1, !tbaa !57, !range !59, !noundef !60
  %54 = trunc i8 %53 to i1
  %55 = zext i1 %54 to i32
  %56 = and i32 %55, %52
  %57 = icmp ne i32 %56, 0
  %58 = zext i1 %57 to i8
  store i8 %58, ptr %8, align 1, !tbaa !57
  br label %59

59:                                               ; preds = %36
  %60 = load i64, ptr %9, align 8, !tbaa !43
  %61 = add i64 %60, 1
  store i64 %61, ptr %9, align 8, !tbaa !43
  br label %24, !llvm.loop !1315

62:                                               ; preds = %35
  %63 = load i8, ptr %8, align 1, !tbaa !57, !range !59, !noundef !60
  %64 = trunc i8 %63 to i1
  %65 = getelementptr inbounds nuw %"class.arrow::(anonymous namespace)::ScalarEqualsVisitor", ptr %10, i32 0, i32 3
  %66 = zext i1 %64 to i8
  store i8 %66, ptr %65, align 1, !tbaa !1196
  call void @llvm.lifetime.end.p0(i64 1, ptr %8) #20
  br label %67

67:                                               ; preds = %62, %21
  call void @_ZN5arrow6Status2OKEv(ptr dead_on_unwind writable sret(%"class.arrow::Status") align 8 %0)
  call void @llvm.lifetime.end.p0(i64 8, ptr %7) #20
  ret void
}