; Function Attrs: mustprogress uwtable
define internal fastcc void @_ZN5arrow12_GLOBAL__N_119ScalarEqualsVisitor5VisitERKNS_12StructScalarE(ptr dead_on_unwind noalias nonnull writable writeonly align 8 captures(none) %0, ptr noundef nonnull align 8 captures(none) dereferenceable(34) %1, ptr noundef nonnull readonly align 8 captures(none) dereferenceable(72) %2) unnamed_addr #1 align 2 {
  %4 = load ptr, ptr %1, align 8, !tbaa !1011
  %5 = getelementptr inbounds nuw i8, ptr %4, i64 48
  %6 = getelementptr inbounds nuw i8, ptr %4, i64 56
  %7 = load ptr, ptr %6, align 8, !tbaa !1051
  %8 = load ptr, ptr %5, align 8, !tbaa !1054
  %9 = ptrtoint ptr %7 to i64
  %10 = ptrtoint ptr %8 to i64
  %11 = sub i64 %9, %10
  %12 = getelementptr inbounds nuw i8, ptr %2, i64 48
  %13 = getelementptr inbounds nuw i8, ptr %2, i64 56
  %14 = load ptr, ptr %13, align 8, !tbaa !1051
  %15 = load ptr, ptr %12, align 8, !tbaa !1054
  %16 = ptrtoint ptr %14 to i64
  %17 = ptrtoint ptr %15 to i64
  %18 = sub i64 %16, %17
  %.not = icmp eq i64 %11, %18
  br i1 %.not, label %.preheader, label %._crit_edge

.preheader:                                       ; preds = %3
  %.not14 = icmp eq ptr %14, %15
  br i1 %.not14, label %._crit_edge, label %.lr.ph

.lr.ph:                                           ; preds = %.preheader
  %19 = getelementptr inbounds nuw i8, ptr %1, i64 8
  %20 = getelementptr inbounds nuw i8, ptr %1, i64 32
  br label %22

._crit_edge.loopexit:                             ; preds = %22
  %21 = zext i1 %31 to i8
  br label %._crit_edge

22:                                               ; preds = %.lr.ph, %22
  %23 = phi ptr [ %15, %.lr.ph ], [ %34, %22 ]
  %.013 = phi i64 [ 0, %.lr.ph ], [ %32, %22 ]
  %24 = getelementptr inbounds nuw %"class.std::shared_ptr.334", ptr %23, i64 %.013
  %25 = load ptr, ptr %24, align 8, !tbaa !260
  %26 = load ptr, ptr %5, align 8, !tbaa !1054
  %27 = getelementptr inbounds nuw %"class.std::shared_ptr.334", ptr %26, i64 %.013
  %28 = load ptr, ptr %27, align 8, !tbaa !260
  %29 = load i8, ptr %20, align 8, !tbaa !117, !range !81, !noundef !82
  %30 = trunc nuw i8 %29 to i1
  %31 = tail call fastcc noundef zeroext i1 @_ZN5arrow12_GLOBAL__N_112ScalarEqualsERKNS_6ScalarES3_RKNS_12EqualOptionsEb(ptr noundef nonnull align 8 dereferenceable(41) %25, ptr noundef nonnull align 8 dereferenceable(41) %28, ptr noundef nonnull align 8 dereferenceable(24) %19, i1 noundef zeroext %30)
  %32 = add nuw i64 %.013, 1
  %33 = load ptr, ptr %13, align 8, !tbaa !1051
  %34 = load ptr, ptr %12, align 8, !tbaa !1054
  %35 = ptrtoint ptr %33 to i64
  %36 = ptrtoint ptr %34 to i64
  %37 = sub i64 %35, %36
  %38 = ashr exact i64 %37, 4
  %39 = icmp ult i64 %32, %38
  %40 = and i1 %31, %39
  br i1 %40, label %22, label %._crit_edge.loopexit, !llvm.loop !1055

._crit_edge:                                      ; preds = %.preheader, %._crit_edge.loopexit, %3
  %.012.lcssa.sink = phi i8 [ 0, %3 ], [ 1, %.preheader ], [ %21, %._crit_edge.loopexit ]
  %41 = getelementptr inbounds nuw i8, ptr %1, i64 33
  store i8 %.012.lcssa.sink, ptr %41, align 1, !tbaa !119
  store ptr null, ptr %0, align 8, !tbaa !93, !alias.scope !1056
  ret void
}